#include <math.h>
#include <stdio.h>
#include <stdlib.h>
#include <string.h>


int main(){
	char k[501],h[501];
	double c,d;
	scanf("%lf",&c);
	scanf("%s",k);
	scanf("%s",h);
	int sum=0;
	int a;
	a=strlen(k);
	int b;
	b=strlen(h);
	if(a!=b)
		printf("error");
	else if(a==b){
		for(int i=0;i<a;i++){
			if((k[i]!='A'&&k[i]!='T'&&k[i]!='C'&&k[i]!='G')||(h[i]!='A'&&h[i]!='T'&&h[i]!='C'&&h[i]!='G')){
				printf("error");
			return 0;
			}
			else{
				if(k[i]==h[i])
					sum++;
			}
		}
		if(1.0*sum/a>c)
			printf("yes");
		else
			printf("no");
	}

	return 0;
}